target datalayout = "e-m:e-p270:32:32-p271:32:32-p272:64:64-i64:64-i128:128-f80:128-n8:16:32:64-S128"
target triple = "x86_64-unknown-linux-gnu"

%struct.VhostUserGPU = type { %struct.VirtIOGPUBase, ptr, i32, %struct.CharBackend, [16 x %struct.QemuDmaBuf], i8 }
%struct.VirtIOGPUBase = type { %struct.VirtIODevice, ptr, %struct.virtio_gpu_base_conf, %struct.virtio_gpu_config, ptr, i32, i32, %struct.MemoryRegion, [16 x %struct.virtio_gpu_scanout], i32, [16 x %struct.virtio_gpu_requested_state] }
%struct.VirtIODevice = type { %struct.DeviceState, ptr, i8, i8, i16, i64, i64, i64, i64, ptr, i16, i32, i32, ptr, %struct.MemoryListener, i16, i8, i8, i8, i8, i8, i8, i8, i8, i8, ptr, ptr, i8, i8, ptr, ptr, %union.anon.1, %struct.EventNotifier, i8 }
%struct.DeviceState = type { %struct.Object, ptr, ptr, i8, i8, i64, ptr, i32, i8, ptr, %struct.NamedGPIOListHead, %struct.NamedClockListHead, %struct.BusStateHead, i32, i32, i32, %struct.ResettableState, ptr, %struct.MemReentrancyGuard }
%struct.Object = type { ptr, ptr, ptr, i32, ptr }
%struct.NamedGPIOListHead = type { ptr }
%struct.NamedClockListHead = type { ptr }
%struct.BusStateHead = type { ptr }
%struct.ResettableState = type { i32, i8, i8 }
%struct.MemReentrancyGuard = type { i8 }
%struct.MemoryListener = type { ptr, ptr, ptr, ptr, ptr, ptr, ptr, ptr, ptr, ptr, ptr, ptr, ptr, ptr, ptr, ptr, ptr, i32, ptr, ptr, %union.anon, %union.anon.0 }
%union.anon = type { %struct.QTailQLink }
%struct.QTailQLink = type { ptr, ptr }
%union.anon.0 = type { %struct.QTailQLink }
%union.anon.1 = type { %struct.QTailQLink }
%struct.EventNotifier = type { i32, i32, i8 }
%struct.virtio_gpu_base_conf = type { i32, i32, i32, i32, i64 }
%struct.virtio_gpu_config = type { i32, i32, i32, i32 }
%struct.MemoryRegion = type { %struct.Object, i8, i8, i8, i8, i8, i8, i8, i8, i8, i8, ptr, ptr, ptr, ptr, ptr, ptr, i32, i128, i64, ptr, i64, i8, i8, i8, i8, i8, ptr, i64, i32, %union.anon.2, %union.anon.3, %union.anon.4, ptr, i32, ptr, ptr, i8 }
%union.anon.2 = type { %struct.QTailQLink }
%union.anon.3 = type { %struct.QTailQLink }
%union.anon.4 = type { %struct.QTailQLink }
%struct.virtio_gpu_scanout = type { ptr, ptr, i32, i32, i32, i32, i32, i32, %struct.virtio_gpu_update_cursor, ptr }
%struct.virtio_gpu_update_cursor = type { %struct.virtio_gpu_ctrl_hdr, %struct.virtio_gpu_cursor_pos, i32, i32, i32, i32 }
%struct.virtio_gpu_ctrl_hdr = type { i32, i32, i64, i32, i8, [3 x i8] }
%struct.virtio_gpu_cursor_pos = type { i32, i32, i32, i32 }
%struct.virtio_gpu_requested_state = type { i16, i16, i32, i32, i32, i32, i32 }
%struct.CharBackend = type { ptr, ptr, ptr, ptr, ptr, ptr, i32, i32 }
%struct.QemuDmaBuf = type { i32, i32, i32, i32, i32, i64, i32, i32, i32, i32, i32, i8, ptr, i32, i8, i8 }
%struct.VhostUserBackend = type { %struct.Object, ptr, %struct.CharBackend, %struct.VhostUserState, %struct.vhost_dev, ptr, i8, i8 }
%struct.VhostUserState = type { ptr, ptr, i32, i8 }
%struct.vhost_dev = type { ptr, %struct.MemoryListener, %struct.MemoryListener, ptr, i32, ptr, i32, ptr, ptr, i32, i32, i32, i32, i64, i64, i64, i64, i64, i64, i8, i8, i64, ptr, ptr, ptr, ptr, %struct.anon, %struct.anon.7, %struct.IOMMUNotifier, ptr }
%struct.anon = type { ptr, ptr }
%struct.anon.7 = type { ptr }
%struct.IOMMUNotifier = type { ptr, i32, i64, i64, i32, %struct.anon.8 }
%struct.anon.8 = type { ptr, ptr }

@.str = private unnamed_addr constant [15 x i8] c"vhost-user-gpu\00", align 1
@.str.1 = private unnamed_addr constant [16 x i8] c"virtio-gpu-base\00", align 1
@.str.4 = private unnamed_addr constant [109 x i8] c"/home/dtcxzyw/WorkSpace/Projects/compilers/llvm-opt-benchmark/bench/qemu/qemu/include/hw/virtio/virtio-gpu.h\00", align 1
@__func__.VHOST_USER_GPU = private unnamed_addr constant [15 x i8] c"VHOST_USER_GPU\00", align 1
@__func__.VIRTIO_GPU_BASE = private unnamed_addr constant [16 x i8] c"VIRTIO_GPU_BASE\00", align 1
@.str.27 = private unnamed_addr constant [47 x i8] c"vhost-user-gpu: set device config space failed\00", align 1

; Function Attrs: nounwind sspstrong uwtable
define internal ptr @VIRTIO_GPU_BASE(ptr noundef %obj) #0 {
entry:
  %obj.addr = alloca ptr, align 8
  store ptr %obj, ptr %obj.addr, align 8
  %0 = load ptr, ptr %obj.addr, align 8
  %call = call ptr @object_dynamic_cast_assert(ptr noundef %0, ptr noundef @.str.1, ptr noundef @.str.4, i32 noundef 30, ptr noundef @__func__.VIRTIO_GPU_BASE)
  ret ptr %call
}

; Function Attrs: nounwind sspstrong uwtable
define internal ptr @VHOST_USER_GPU(ptr noundef %obj) #0 {
entry:
  %obj.addr = alloca ptr, align 8
  store ptr %obj, ptr %obj.addr, align 8
  %0 = load ptr, ptr %obj.addr, align 8
  %call = call ptr @object_dynamic_cast_assert(ptr noundef %0, ptr noundef @.str, ptr noundef @.str.4, i32 noundef 39, ptr noundef @__func__.VHOST_USER_GPU)
  ret ptr %call
}

; Function Attrs: nounwind sspstrong uwtable
define internal void @vhost_user_gpu_set_config(ptr noundef %vdev, ptr noundef %config_data) #0 {
entry:
  %vdev.addr = alloca ptr, align 8
  %config_data.addr = alloca ptr, align 8
  %g = alloca ptr, align 8
  %b = alloca ptr, align 8
  %vgconfig = alloca ptr, align 8
  %ret = alloca i32, align 4
  store ptr %vdev, ptr %vdev.addr, align 8
  store ptr %config_data, ptr %config_data.addr, align 8
  %0 = load ptr, ptr %vdev.addr, align 8
  %call = call ptr @VHOST_USER_GPU(ptr noundef %0)
  store ptr %call, ptr %g, align 8
  %1 = load ptr, ptr %vdev.addr, align 8
  %call1 = call ptr @VIRTIO_GPU_BASE(ptr noundef %1)
  store ptr %call1, ptr %b, align 8
  %2 = load ptr, ptr %config_data.addr, align 8
  store ptr %2, ptr %vgconfig, align 8
  %3 = load ptr, ptr %vgconfig, align 8
  %events_clear = getelementptr inbounds %struct.virtio_gpu_config, ptr %3, i32 0, i32 1
  %4 = load i32, ptr %events_clear, align 4
  %tobool = icmp ne i32 %4, 0
  br i1 %tobool, label %if.then, label %if.end

if.then:                                          ; preds = %entry
  %5 = load ptr, ptr %vgconfig, align 8
  %events_clear2 = getelementptr inbounds %struct.virtio_gpu_config, ptr %5, i32 0, i32 1
  %6 = load i32, ptr %events_clear2, align 4
  %not = xor i32 %6, -1
  %7 = load ptr, ptr %b, align 8
  %virtio_config = getelementptr inbounds %struct.VirtIOGPUBase, ptr %7, i32 0, i32 3
  %events_read = getelementptr inbounds %struct.virtio_gpu_config, ptr %virtio_config, i32 0, i32 0
  %8 = load i32, ptr %events_read, align 8
  %and = and i32 %8, %not
  store i32 %and, ptr %events_read, align 8
  br label %if.end

if.end:                                           ; preds = %if.then, %entry
  %9 = load ptr, ptr %g, align 8
  %vhost = getelementptr inbounds %struct.VhostUserGPU, ptr %9, i32 0, i32 1
  %10 = load ptr, ptr %vhost, align 16
  %dev = getelementptr inbounds %struct.VhostUserBackend, ptr %10, i32 0, i32 4
  %11 = load ptr, ptr %config_data.addr, align 8
  %call3 = call i32 @vhost_dev_set_config(ptr noundef %dev, ptr noundef %11, i32 noundef 0, i32 noundef 16, i32 noundef 0)
  store i32 %call3, ptr %ret, align 4
  %12 = load i32, ptr %ret, align 4
  %tobool4 = icmp ne i32 %12, 0
  br i1 %tobool4, label %if.then5, label %if.end6

if.then5:                                         ; preds = %if.end
  call void (ptr, ...) @error_report(ptr noundef @.str.27)
  br label %if.end6

if.end6:                                          ; preds = %if.then5, %if.end
  ret void
}