; Function Attrs: nounwind sspstrong uwtable
define internal void @vhost_user_gpu_set_config(ptr noundef %vdev, ptr noundef %config_data) #0 {
entry:
  %call.i = tail call ptr @object_dynamic_cast_assert(ptr noundef %vdev, ptr noundef nonnull @.str, ptr noundef nonnull @.str.4, i32 noundef 39, ptr noundef nonnull @__func__.VHOST_USER_GPU) #7
  %call.i4 = tail call ptr @object_dynamic_cast_assert(ptr noundef %vdev, ptr noundef nonnull @.str.1, ptr noundef nonnull @.str.4, i32 noundef 30, ptr noundef nonnull @__func__.VIRTIO_GPU_BASE) #7
  %events_clear = getelementptr inbounds nuw i8, ptr %config_data, i64 4
  %0 = load i32, ptr %events_clear, align 4
  %tobool.not = icmp eq i32 %0, 0
  br i1 %tobool.not, label %if.end, label %if.then

if.then:                                          ; preds = %entry
  %not = xor i32 %0, -1
  %virtio_config = getelementptr inbounds nuw i8, ptr %call.i4, i64 552
  %1 = load i32, ptr %virtio_config, align 8
  %and = and i32 %1, %not
  store i32 %and, ptr %virtio_config, align 8
  br label %if.end

if.end:                                           ; preds = %if.then, %entry
  %vhost = getelementptr inbounds nuw i8, ptr %call.i, i64 2928
  %2 = load ptr, ptr %vhost, align 16
  %dev = getelementptr inbounds nuw i8, ptr %2, i64 128
  %call3 = tail call i32 @vhost_dev_set_config(ptr noundef nonnull %dev, ptr noundef nonnull %config_data, i32 noundef 0, i32 noundef 16, i32 noundef 0) #7
  %tobool4.not = icmp eq i32 %call3, 0
  br i1 %tobool4.not, label %if.end6, label %if.then5

if.then5:                                         ; preds = %if.end
  tail call void (ptr, ...) @error_report(ptr noundef nonnull @.str.27) #7
  br label %if.end6

if.end6:                                          ; preds = %if.then5, %if.end
  ret void
}